target datalayout = "e-m:e-p270:32:32-p271:32:32-p272:64:64-i64:64-i128:128-f80:128-n8:16:32:64-S128"
target triple = "x86_64-pc-linux-gnu"

%struct._PyJumpTargetLabel = type { i32 }
%struct._PyCfgBuilder = type { ptr, ptr, ptr, %struct._PyJumpTargetLabel }
%struct._PyCfgBasicblock = type { ptr, %struct._PyJumpTargetLabel, ptr, ptr, ptr, i32, i32, i64, i32, i32, i8 }

; Function Attrs: nounwind uwtable
define hidden i32 @_PyCfgBuilder_CheckSize(ptr noundef %0) #0 {
  %2 = alloca i32, align 4
  %3 = alloca ptr, align 8
  %4 = alloca i32, align 4
  %5 = alloca ptr, align 8
  %6 = alloca i32, align 4
  store ptr %0, ptr %3, align 8, !tbaa !4
  call void @llvm.lifetime.start.p0(i64 4, ptr %4) #7
  store i32 0, ptr %4, align 4, !tbaa !19
  call void @llvm.lifetime.start.p0(i64 8, ptr %5) #7
  %7 = load ptr, ptr %3, align 8, !tbaa !4
  %8 = getelementptr inbounds nuw %struct._PyCfgBuilder, ptr %7, i32 0, i32 1
  %9 = load ptr, ptr %8, align 8, !tbaa !9
  store ptr %9, ptr %5, align 8, !tbaa !14
  br label %10

10:                                               ; preds = %17, %1
  %11 = load ptr, ptr %5, align 8, !tbaa !14
  %12 = icmp ne ptr %11, null
  br i1 %12, label %14, label %13

13:                                               ; preds = %10
  call void @llvm.lifetime.end.p0(i64 8, ptr %5) #7
  br label %21

14:                                               ; preds = %10
  %15 = load i32, ptr %4, align 4, !tbaa !19
  %16 = add i32 %15, 1
  store i32 %16, ptr %4, align 4, !tbaa !19
  br label %17

17:                                               ; preds = %14
  %18 = load ptr, ptr %5, align 8, !tbaa !14
  %19 = getelementptr inbounds nuw %struct._PyCfgBasicblock, ptr %18, i32 0, i32 0
  %20 = load ptr, ptr %19, align 8, !tbaa !25
  store ptr %20, ptr %5, align 8, !tbaa !14
  br label %10, !llvm.loop !28

21:                                               ; preds = %13
  %22 = load i32, ptr %4, align 4, !tbaa !19
  %23 = sext i32 %22 to i64
  %24 = icmp ugt i64 %23, 2305843009213693951
  br i1 %24, label %25, label %27

25:                                               ; preds = %21
  %26 = call ptr @PyErr_NoMemory()
  store i32 -1, ptr %2, align 4
  store i32 1, ptr %6, align 4
  br label %28

27:                                               ; preds = %21
  store i32 0, ptr %2, align 4
  store i32 1, ptr %6, align 4
  br label %28

28:                                               ; preds = %27, %25
  call void @llvm.lifetime.end.p0(i64 4, ptr %4) #7
  %29 = load i32, ptr %2, align 4
  ret i32 %29
}