; Function Attrs: nounwind uwtable
define hidden range(i32 -1, 1) i32 @_PyCfgBuilder_CheckSize(ptr noundef readonly captures(none) %0) local_unnamed_addr #0 {
  %2 = getelementptr inbounds nuw i8, ptr %0, i64 8
  br label %3

3:                                                ; preds = %3, %1
  %.05 = phi i32 [ 0, %1 ], [ %4, %3 ]
  %.0.in = phi ptr [ %2, %1 ], [ %.0, %3 ]
  %.0 = load ptr, ptr %.0.in, align 8, !tbaa !23
  %.not = icmp eq ptr %.0, null
  %4 = add i32 %.05, 1
  br i1 %.not, label %5, label %3, !llvm.loop !24

5:                                                ; preds = %3
  %6 = icmp slt i32 %.05, 0
  br i1 %6, label %7, label %9

7:                                                ; preds = %5
  %8 = tail call ptr @PyErr_NoMemory() #8
  br label %9

9:                                                ; preds = %5, %7
  %.06 = phi i32 [ -1, %7 ], [ 0, %5 ]
  ret i32 %.06
}